target datalayout = "e-m:e-p270:32:32-p271:32:32-p272:64:64-i64:64-i128:128-f80:128-n8:16:32:64-S128"
target triple = "x86_64-pc-linux-gnu"

@rb_eRangeError = external global i64, align 8
@rb_eArgError = external global i64, align 8
@natstr = internal constant [11 x i8] c"sSiIlLqQjJ\00", align 1
@.str.17 = private unnamed_addr constant [33 x i8] c"'%c' allowed only after types %s\00", align 1
@.str.18 = private unnamed_addr constant [27 x i8] c"Can't use both '<' and '>'\00", align 1

; Function Attrs: nounwind sspstrong uwtable
define internal ptr @pack_modifiers(ptr noundef %0, i8 noundef signext %1, ptr noundef %2, ptr noundef %3) #0 {
  %5 = alloca ptr, align 8
  %6 = alloca i8, align 1
  %7 = alloca ptr, align 8
  %8 = alloca ptr, align 8
  store ptr %0, ptr %5, align 8, !tbaa !16
  store i8 %1, ptr %6, align 1, !tbaa !18
  store ptr %2, ptr %7, align 8, !tbaa !44
  store ptr %3, ptr %8, align 8, !tbaa !44
  br label %9

9:                                                ; preds = %4, %52
  %10 = load ptr, ptr %5, align 8, !tbaa !16
  %11 = load i8, ptr %10, align 1, !tbaa !18
  %12 = sext i8 %11 to i32
  switch i32 %12, label %50 [
    i32 95, label %13
    i32 33, label %13
    i32 60, label %28
    i32 62, label %28
  ]

13:                                               ; preds = %9, %9
  %14 = load i8, ptr %6, align 1, !tbaa !18
  %15 = sext i8 %14 to i32
  %16 = call ptr @strchr(ptr noundef @natstr, i32 noundef %15) #21
  %17 = icmp ne ptr %16, null
  br i1 %17, label %18, label %22

18:                                               ; preds = %13
  %19 = load ptr, ptr %7, align 8, !tbaa !44
  store i32 1, ptr %19, align 4, !tbaa !14
  %20 = load ptr, ptr %5, align 8, !tbaa !16
  %21 = getelementptr i8, ptr %20, i32 1
  store ptr %21, ptr %5, align 8, !tbaa !16
  br label %27

22:                                               ; preds = %13
  %23 = load i64, ptr @rb_eArgError, align 8, !tbaa !12
  %24 = load ptr, ptr %5, align 8, !tbaa !16
  %25 = load i8, ptr %24, align 1, !tbaa !18
  %26 = sext i8 %25 to i32
  call void (i64, ptr, ...) @rb_raise(i64 noundef %23, ptr noundef @.str.17, i32 noundef %26, ptr noundef @natstr) #23
  unreachable

27:                                               ; preds = %18
  br label %52

28:                                               ; preds = %9, %9
  %29 = load i8, ptr %6, align 1, !tbaa !18
  %30 = sext i8 %29 to i32
  %31 = call ptr @strchr(ptr noundef @natstr, i32 noundef %30) #21
  %32 = icmp ne ptr %31, null
  br i1 %32, label %38, label %33

33:                                               ; preds = %28
  %34 = load i64, ptr @rb_eArgError, align 8, !tbaa !12
  %35 = load ptr, ptr %5, align 8, !tbaa !16
  %36 = load i8, ptr %35, align 1, !tbaa !18
  %37 = sext i8 %36 to i32
  call void (i64, ptr, ...) @rb_raise(i64 noundef %34, ptr noundef @.str.17, i32 noundef %37, ptr noundef @natstr) #23
  unreachable

38:                                               ; preds = %28
  %39 = load ptr, ptr %8, align 8, !tbaa !44
  %40 = load i32, ptr %39, align 4, !tbaa !14
  %41 = icmp ne i32 %40, 0
  br i1 %41, label %42, label %44

42:                                               ; preds = %38
  %43 = load i64, ptr @rb_eRangeError, align 8, !tbaa !12
  call void (i64, ptr, ...) @rb_raise(i64 noundef %43, ptr noundef @.str.18) #23
  unreachable

44:                                               ; preds = %38
  %45 = load ptr, ptr %5, align 8, !tbaa !16
  %46 = getelementptr i8, ptr %45, i32 1
  store ptr %46, ptr %5, align 8, !tbaa !16
  %47 = load i8, ptr %45, align 1, !tbaa !18
  %48 = sext i8 %47 to i32
  %49 = load ptr, ptr %8, align 8, !tbaa !44
  store i32 %48, ptr %49, align 4, !tbaa !14
  br label %52

50:                                               ; preds = %9
  %51 = load ptr, ptr %5, align 8, !tbaa !16
  ret ptr %51

52:                                               ; preds = %44, %27
  br label %9
}