; Function Attrs: nounwind sspstrong uwtable
define internal fastcc noundef ptr @pack_modifiers(ptr noundef readonly captures(ret: address, provenance) %0, i8 noundef signext %1, ptr noundef nonnull writeonly captures(none) %2, ptr noundef nonnull captures(none) %3) unnamed_addr #0 {
  %5 = sext i8 %1 to i32
  br label %6

6:                                                ; preds = %24, %4
  %.0 = phi ptr [ %0, %4 ], [ %.1, %24 ]
  %7 = load i8, ptr %.0, align 1, !tbaa !26
  switch i8 %7, label %23 [
    i8 95, label %8
    i8 33, label %8
    i8 60, label %13
    i8 62, label %13
  ]

8:                                                ; preds = %6, %6
  %memchr11 = tail call ptr @memchr(ptr nonnull dereferenceable(1) @natstr, i32 %5, i64 11)
  %.not12 = icmp eq ptr %memchr11, null
  br i1 %.not12, label %10, label %9

9:                                                ; preds = %8
  store i32 1, ptr %2, align 4, !tbaa !21
  br label %24

10:                                               ; preds = %8
  %11 = load i64, ptr @rb_eArgError, align 8, !tbaa !7
  %12 = zext nneg i8 %7 to i32
  tail call void (i64, ptr, ...) @rb_raise(i64 noundef %11, ptr noundef nonnull @.str.17, i32 noundef %12, ptr noundef nonnull @natstr) #14
  unreachable

13:                                               ; preds = %6, %6
  %memchr = tail call ptr @memchr(ptr nonnull dereferenceable(1) @natstr, i32 %5, i64 11)
  %.not = icmp eq ptr %memchr, null
  br i1 %.not, label %14, label %17

14:                                               ; preds = %13
  %15 = load i64, ptr @rb_eArgError, align 8, !tbaa !7
  %16 = zext nneg i8 %7 to i32
  tail call void (i64, ptr, ...) @rb_raise(i64 noundef %15, ptr noundef nonnull @.str.17, i32 noundef %16, ptr noundef nonnull @natstr) #14
  unreachable

17:                                               ; preds = %13
  %18 = load i32, ptr %3, align 4, !tbaa !21
  %.not10 = icmp eq i32 %18, 0
  br i1 %.not10, label %21, label %19

19:                                               ; preds = %17
  %20 = load i64, ptr @rb_eRangeError, align 8, !tbaa !7
  tail call void (i64, ptr, ...) @rb_raise(i64 noundef %20, ptr noundef nonnull @.str.18) #14
  unreachable

21:                                               ; preds = %17
  %22 = zext nneg i8 %7 to i32
  store i32 %22, ptr %3, align 4, !tbaa !21
  br label %24

23:                                               ; preds = %6
  ret ptr %.0

24:                                               ; preds = %21, %9
  %.1 = getelementptr i8, ptr %.0, i64 1
  br label %6
}